; Function Attrs: nounwind uwtable
define ptr @l_Lake_Toml_sepByLinebreak_parenthesizer(ptr noundef %0, i8 noundef zeroext %1, ptr noundef %2, ptr noundef %3, ptr noundef %4, ptr noundef %5, ptr noundef %6) local_unnamed_addr #1 {
  %8 = load ptr, ptr @l_Lake_Toml_tomlCore___closed__4, align 8, !tbaa !10
  %9 = load ptr, ptr @l_Lake_Toml_sepByLinebreak_parenthesizer___closed__1, align 8, !tbaa !10
  tail call void @lean_inc_heartbeat() #4
  %10 = tail call noalias ptr @mi_malloc_small(i64 noundef 48) #4
  %11 = icmp eq ptr %10, null
  br i1 %11, label %12, label %lean_alloc_closure.exit

12:                                               ; preds = %7
  tail call void @lean_internal_panic_out_of_memory() #5
  unreachable

lean_alloc_closure.exit:                          ; preds = %7
  %13 = getelementptr inbounds nuw i8, ptr %10, i64 4
  store i32 1, ptr %10, align 4, !tbaa !4
  store i32 -184549328, ptr %13, align 4
  %14 = getelementptr inbounds nuw i8, ptr %10, i64 8
  store ptr @l_Lean_Parser_withAntiquotSpliceAndSuffix_parenthesizer, ptr %14, align 8, !tbaa !10
  %15 = getelementptr inbounds nuw i8, ptr %10, i64 16
  store i16 8, ptr %15, align 8, !tbaa !18
  %16 = getelementptr inbounds nuw i8, ptr %10, i64 18
  store i16 3, ptr %16, align 2, !tbaa !18
  %17 = getelementptr inbounds nuw i8, ptr %10, i64 24
  store ptr %8, ptr %17, align 8, !tbaa !10
  %18 = getelementptr inbounds nuw i8, ptr %10, i64 32
  store ptr %0, ptr %18, align 8, !tbaa !10
  %19 = getelementptr inbounds nuw i8, ptr %10, i64 40
  store ptr %9, ptr %19, align 8, !tbaa !10
  %20 = load ptr, ptr @l_Lake_Toml_sepByLinebreak_parenthesizer___closed__4, align 8, !tbaa !10
  %21 = tail call ptr @l_Lean_PrettyPrinter_Parenthesizer_sepByNoAntiquot_parenthesizer(ptr noundef nonnull %10, ptr noundef %20, ptr noundef %2, ptr noundef %3, ptr noundef %4, ptr noundef %5, ptr noundef %6) #4
  ret ptr %21
}